target datalayout = "e-m:e-p270:32:32-p271:32:32-p272:64:64-i64:64-i128:128-f80:128-n8:16:32:64-S128"
target triple = "x86_64-pc-linux-gnu"

%struct.OSSL_TIME = type { i64 }
%struct.terp_config_st = type { ptr, ptr, ptr, ptr, ptr, %struct.OSSL_TIME }
%struct.terp_st = type { %struct.terp_config_st, ptr, ptr, %struct.srdr_st, ptr, ptr, ptr, ptr, %struct.func_ctx_st, i64, i32, %struct.OSSL_TIME, %struct.OSSL_TIME }
%struct.srdr_st = type { ptr, ptr, ptr, ptr }
%struct.func_ctx_st = type { ptr, i32, i32 }
%struct.radix_thread_st = type { ptr, ptr, ptr, i64, i64, [8 x ptr], [8 x ptr], ptr, ptr, ptr, i32, i32, i64 }

@.str.42 = private unnamed_addr constant [29 x i8] c"../openssl/test/radix/terp.c\00", align 1
@.str.44 = private unnamed_addr constant [33 x i8] c"../openssl/test/radix/quic_ops.c\00", align 1
@.str.55 = private unnamed_addr constant [30 x i8] c"terp->stk_end - terp->stk_cur\00", align 1
@.str.56 = private unnamed_addr constant [8 x i8] c"buf_len\00", align 1
@.str.74 = private unnamed_addr constant [38 x i8] c"../openssl/test/radix/quic_bindings.c\00", align 1
@.str.86 = private unnamed_addr constant [10 x i8] c"NUM_SLOTS\00", align 1
@radix_thread = internal global i32 0, align 4
@.str.93 = private unnamed_addr constant [4 x i8] c"idx\00", align 1
@.str.94 = private unnamed_addr constant [24 x i8] c"*p_ssl = RT()->ssl[idx]\00", align 1
@.str.95 = private unnamed_addr constant [37 x i8] c"expect_slot_ssl(fctx, (0), &((ssl)))\00", align 1
@.str.113 = private unnamed_addr constant [66 x i8] c"TERP_stk_pop(((fctx->terp)), &(((buf_len))), sizeof(((buf_len))))\00", align 1
@.str.114 = private unnamed_addr constant [58 x i8] c"TERP_stk_pop(((fctx->terp)), &(((buf))), sizeof(((buf))))\00", align 1
@.str.124 = private unnamed_addr constant [40 x i8] c"RT()->tmp_buf = OPENSSL_malloc(buf_len)\00", align 1
@.str.125 = private unnamed_addr constant [30 x i8] c"check_consistent_want(ssl, r)\00", align 1
@.str.126 = private unnamed_addr constant [14 x i8] c"RT()->tmp_buf\00", align 1
@.str.127 = private unnamed_addr constant [4 x i8] c"buf\00", align 1

; Function Attrs: nounwind uwtable
define internal ptr @radix_get_thread() #0 {
  %1 = call ptr @CRYPTO_THREAD_get_local(ptr noundef @radix_thread)
  ret ptr %1
}

; Function Attrs: nounwind uwtable
define internal i32 @expect_slot_ssl(ptr noundef %0, i64 noundef %1, ptr noundef %2) #0 {
  %4 = alloca i32, align 4
  %5 = alloca ptr, align 8
  %6 = alloca i64, align 8
  %7 = alloca ptr, align 8
  store ptr %0, ptr %5, align 8, !tbaa !42
  store i64 %1, ptr %6, align 8, !tbaa !19
  store ptr %2, ptr %7, align 8, !tbaa !90
  %8 = load i64, ptr %6, align 8, !tbaa !19
  %9 = call i32 @test_size_t_lt(ptr noundef @.str.74, i32 noundef 670, ptr noundef @.str.93, ptr noundef @.str.86, i64 noundef %8, i64 noundef 8)
  %10 = icmp ne i32 %9, 0
  br i1 %10, label %11, label %20

11:                                               ; preds = %3
  %12 = call ptr @radix_get_thread()
  %13 = getelementptr inbounds nuw %struct.radix_thread_st, ptr %12, i32 0, i32 6
  %14 = load i64, ptr %6, align 8, !tbaa !19
  %15 = getelementptr inbounds nuw [8 x ptr], ptr %13, i64 0, i64 %14
  %16 = load ptr, ptr %15, align 8, !tbaa !49
  %17 = load ptr, ptr %7, align 8, !tbaa !90
  store ptr %16, ptr %17, align 8, !tbaa !49
  %18 = call i32 @test_ptr(ptr noundef @.str.74, i32 noundef 671, ptr noundef @.str.94, ptr noundef %16)
  %19 = icmp ne i32 %18, 0
  br i1 %19, label %21, label %20

20:                                               ; preds = %11, %3
  store i32 0, ptr %4, align 4
  br label %22

21:                                               ; preds = %11
  store i32 1, ptr %4, align 4
  br label %22

22:                                               ; preds = %21, %20
  %23 = load i32, ptr %4, align 4
  ret i32 %23
}

; Function Attrs: inlinehint nounwind uwtable
define internal i32 @TERP_stk_pop(ptr noundef %0, ptr noundef %1, i64 noundef %2) #5 {
  %4 = alloca i32, align 4
  %5 = alloca ptr, align 8
  %6 = alloca ptr, align 8
  %7 = alloca i64, align 8
  store ptr %0, ptr %5, align 8, !tbaa !75
  store ptr %1, ptr %6, align 8, !tbaa !41
  store i64 %2, ptr %7, align 8, !tbaa !19
  %8 = load ptr, ptr %5, align 8, !tbaa !75
  %9 = getelementptr inbounds nuw %struct.terp_st, ptr %8, i32 0, i32 6
  %10 = load ptr, ptr %9, align 8, !tbaa !26
  %11 = load ptr, ptr %5, align 8, !tbaa !75
  %12 = getelementptr inbounds nuw %struct.terp_st, ptr %11, i32 0, i32 5
  %13 = load ptr, ptr %12, align 8, !tbaa !32
  %14 = ptrtoint ptr %10 to i64
  %15 = ptrtoint ptr %13 to i64
  %16 = sub i64 %14, %15
  %17 = load i64, ptr %7, align 8, !tbaa !19
  %18 = call i32 @test_size_t_ge(ptr noundef @.str.42, i32 noundef 629, ptr noundef @.str.55, ptr noundef @.str.56, i64 noundef %16, i64 noundef %17)
  %19 = icmp ne i32 %18, 0
  br i1 %19, label %21, label %20

20:                                               ; preds = %3
  store i32 0, ptr %4, align 4
  br label %32

21:                                               ; preds = %3
  %22 = load ptr, ptr %6, align 8, !tbaa !41
  %23 = load ptr, ptr %5, align 8, !tbaa !75
  %24 = getelementptr inbounds nuw %struct.terp_st, ptr %23, i32 0, i32 5
  %25 = load ptr, ptr %24, align 8, !tbaa !32
  %26 = load i64, ptr %7, align 8, !tbaa !19
  call void @llvm.memcpy.p0.p0.i64(ptr align 1 %22, ptr align 1 %25, i64 %26, i1 false)
  %27 = load i64, ptr %7, align 8, !tbaa !19
  %28 = load ptr, ptr %5, align 8, !tbaa !75
  %29 = getelementptr inbounds nuw %struct.terp_st, ptr %28, i32 0, i32 5
  %30 = load ptr, ptr %29, align 8, !tbaa !32
  %31 = getelementptr inbounds nuw i8, ptr %30, i64 %27
  store ptr %31, ptr %29, align 8, !tbaa !32
  store i32 1, ptr %4, align 4
  br label %32

32:                                               ; preds = %21, %20
  %33 = load i32, ptr %4, align 4
  ret i32 %33
}

; Function Attrs: nounwind uwtable
define internal i32 @hf_read_expect(ptr noundef %0) #0 {
  %2 = alloca ptr, align 8
  %3 = alloca i32, align 4
  %4 = alloca i32, align 4
  %5 = alloca ptr, align 8
  %6 = alloca ptr, align 8
  %7 = alloca i64, align 8
  %8 = alloca i64, align 8
  store ptr %0, ptr %2, align 8, !tbaa !42
  call void @llvm.lifetime.start.p0(i64 4, ptr %3) #9
  store i32 0, ptr %3, align 4, !tbaa !9
  call void @llvm.lifetime.start.p0(i64 4, ptr %4) #9
  call void @llvm.lifetime.start.p0(i64 8, ptr %5) #9
  call void @llvm.lifetime.start.p0(i64 8, ptr %6) #9
  call void @llvm.lifetime.start.p0(i64 8, ptr %7) #9
  call void @llvm.lifetime.start.p0(i64 8, ptr %8) #9
  store i64 0, ptr %8, align 8, !tbaa !19
  br label %9

9:                                                ; preds = %1
  br label %10

10:                                               ; preds = %9
  call void @llvm.memset.p0.i64(ptr align 8 %7, i8 0, i64 8, i1 false)
  %11 = load ptr, ptr %2, align 8, !tbaa !42
  %12 = getelementptr inbounds nuw %struct.func_ctx_st, ptr %11, i32 0, i32 0
  %13 = load ptr, ptr %12, align 8, !tbaa !46
  %14 = call i32 @TERP_stk_pop(ptr noundef %13, ptr noundef %7, i64 noundef 8)
  %15 = icmp ne i32 %14, 0
  %16 = zext i1 %15 to i32
  %17 = call i32 @test_true(ptr noundef @.str.44, i32 noundef 609, ptr noundef @.str.113, i32 noundef %16)
  %18 = icmp ne i32 %17, 0
  br i1 %18, label %20, label %19

19:                                               ; preds = %10
  br label %136

20:                                               ; preds = %10
  br label %21

21:                                               ; preds = %20
  br label %22

22:                                               ; preds = %21
  br label %23

23:                                               ; preds = %22
  call void @llvm.memset.p0.i64(ptr align 8 %6, i8 0, i64 8, i1 false)
  %24 = load ptr, ptr %2, align 8, !tbaa !42
  %25 = getelementptr inbounds nuw %struct.func_ctx_st, ptr %24, i32 0, i32 0
  %26 = load ptr, ptr %25, align 8, !tbaa !46
  %27 = call i32 @TERP_stk_pop(ptr noundef %26, ptr noundef %6, i64 noundef 8)
  %28 = icmp ne i32 %27, 0
  %29 = zext i1 %28 to i32
  %30 = call i32 @test_true(ptr noundef @.str.44, i32 noundef 609, ptr noundef @.str.114, i32 noundef %29)
  %31 = icmp ne i32 %30, 0
  br i1 %31, label %33, label %32

32:                                               ; preds = %23
  br label %136

33:                                               ; preds = %23
  br label %34

34:                                               ; preds = %33
  br label %35

35:                                               ; preds = %34
  br label %36

36:                                               ; preds = %35
  br label %37

37:                                               ; preds = %36
  br label %38

38:                                               ; preds = %37
  store ptr null, ptr %5, align 8, !tbaa !49
  %39 = load ptr, ptr %2, align 8, !tbaa !42
  %40 = call i32 @expect_slot_ssl(ptr noundef %39, i64 noundef 0, ptr noundef %5)
  %41 = icmp ne i32 %40, 0
  %42 = zext i1 %41 to i32
  %43 = call i32 @test_true(ptr noundef @.str.44, i32 noundef 610, ptr noundef @.str.95, i32 noundef %42)
  %44 = icmp ne i32 %43, 0
  br i1 %44, label %46, label %45

45:                                               ; preds = %38
  br label %136

46:                                               ; preds = %38
  br label %47

47:                                               ; preds = %46
  br label %48

48:                                               ; preds = %47
  %49 = load i64, ptr %7, align 8, !tbaa !19
  %50 = icmp ugt i64 %49, 0
  br i1 %50, label %51, label %64

51:                                               ; preds = %48
  %52 = call ptr @radix_get_thread()
  %53 = getelementptr inbounds nuw %struct.radix_thread_st, ptr %52, i32 0, i32 2
  %54 = load ptr, ptr %53, align 8, !tbaa !70
  %55 = icmp eq ptr %54, null
  br i1 %55, label %56, label %64

56:                                               ; preds = %51
  %57 = load i64, ptr %7, align 8, !tbaa !19
  %58 = call noalias ptr @CRYPTO_malloc(i64 noundef %57, ptr noundef @.str.44, i32 noundef 613)
  %59 = call ptr @radix_get_thread()
  %60 = getelementptr inbounds nuw %struct.radix_thread_st, ptr %59, i32 0, i32 2
  store ptr %58, ptr %60, align 8, !tbaa !70
  %61 = call i32 @test_ptr(ptr noundef @.str.44, i32 noundef 613, ptr noundef @.str.124, ptr noundef %58)
  %62 = icmp ne i32 %61, 0
  br i1 %62, label %64, label %63

63:                                               ; preds = %56
  br label %136

64:                                               ; preds = %56, %51, %48
  %65 = load ptr, ptr %5, align 8, !tbaa !49
  %66 = call ptr @radix_get_thread()
  %67 = getelementptr inbounds nuw %struct.radix_thread_st, ptr %66, i32 0, i32 2
  %68 = load ptr, ptr %67, align 8, !tbaa !70
  %69 = call ptr @radix_get_thread()
  %70 = getelementptr inbounds nuw %struct.radix_thread_st, ptr %69, i32 0, i32 3
  %71 = load i64, ptr %70, align 8, !tbaa !71
  %72 = getelementptr inbounds nuw i8, ptr %68, i64 %71
  %73 = load i64, ptr %7, align 8, !tbaa !19
  %74 = call ptr @radix_get_thread()
  %75 = getelementptr inbounds nuw %struct.radix_thread_st, ptr %74, i32 0, i32 3
  %76 = load i64, ptr %75, align 8, !tbaa !71
  %77 = sub i64 %73, %76
  %78 = call i32 @SSL_read_ex(ptr noundef %65, ptr noundef %72, i64 noundef %77, ptr noundef %8)
  store i32 %78, ptr %4, align 4, !tbaa !9
  %79 = load ptr, ptr %5, align 8, !tbaa !49
  %80 = load i32, ptr %4, align 4, !tbaa !9
  %81 = call i32 @check_consistent_want(ptr noundef %79, i32 noundef %80)
  %82 = icmp ne i32 %81, 0
  %83 = zext i1 %82 to i32
  %84 = call i32 @test_true(ptr noundef @.str.44, i32 noundef 619, ptr noundef @.str.125, i32 noundef %83)
  %85 = icmp ne i32 %84, 0
  br i1 %85, label %87, label %86

86:                                               ; preds = %64
  br label %136

87:                                               ; preds = %64
  %88 = load i32, ptr %4, align 4, !tbaa !9
  %89 = icmp ne i32 %88, 0
  br i1 %89, label %96, label %90

90:                                               ; preds = %87
  br label %91

91:                                               ; preds = %90
  store i32 2, ptr %3, align 4, !tbaa !9
  %92 = load ptr, ptr %2, align 8, !tbaa !42
  %93 = getelementptr inbounds nuw %struct.func_ctx_st, ptr %92, i32 0, i32 1
  store i32 1, ptr %93, align 8, !tbaa !63
  br label %136

94:                                               ; No predecessors!
  br label %95

95:                                               ; preds = %94
  br label %96

96:                                               ; preds = %95, %87
  %97 = load i64, ptr %8, align 8, !tbaa !19
  %98 = call ptr @radix_get_thread()
  %99 = getelementptr inbounds nuw %struct.radix_thread_st, ptr %98, i32 0, i32 3
  %100 = load i64, ptr %99, align 8, !tbaa !71
  %101 = add i64 %97, %100
  %102 = load i64, ptr %7, align 8, !tbaa !19
  %103 = icmp ne i64 %101, %102
  br i1 %103, label %104, label %115

104:                                              ; preds = %96
  %105 = load i64, ptr %8, align 8, !tbaa !19
  %106 = call ptr @radix_get_thread()
  %107 = getelementptr inbounds nuw %struct.radix_thread_st, ptr %106, i32 0, i32 3
  %108 = load i64, ptr %107, align 8, !tbaa !71
  %109 = add i64 %108, %105
  store i64 %109, ptr %107, align 8, !tbaa !71
  br label %110

110:                                              ; preds = %104
  store i32 2, ptr %3, align 4, !tbaa !9
  %111 = load ptr, ptr %2, align 8, !tbaa !42
  %112 = getelementptr inbounds nuw %struct.func_ctx_st, ptr %111, i32 0, i32 1
  store i32 1, ptr %112, align 8, !tbaa !63
  br label %136

113:                                              ; No predecessors!
  br label %114

114:                                              ; preds = %113
  br label %115

115:                                              ; preds = %114, %96
  %116 = load i64, ptr %7, align 8, !tbaa !19
  %117 = icmp ugt i64 %116, 0
  br i1 %117, label %118, label %128

118:                                              ; preds = %115
  %119 = call ptr @radix_get_thread()
  %120 = getelementptr inbounds nuw %struct.radix_thread_st, ptr %119, i32 0, i32 2
  %121 = load ptr, ptr %120, align 8, !tbaa !70
  %122 = load i64, ptr %7, align 8, !tbaa !19
  %123 = load ptr, ptr %6, align 8, !tbaa !41
  %124 = load i64, ptr %7, align 8, !tbaa !19
  %125 = call i32 @test_mem_eq(ptr noundef @.str.44, i32 noundef 631, ptr noundef @.str.126, ptr noundef @.str.127, ptr noundef %121, i64 noundef %122, ptr noundef %123, i64 noundef %124)
  %126 = icmp ne i32 %125, 0
  br i1 %126, label %128, label %127

127:                                              ; preds = %118
  br label %136

128:                                              ; preds = %118, %115
  %129 = call ptr @radix_get_thread()
  %130 = getelementptr inbounds nuw %struct.radix_thread_st, ptr %129, i32 0, i32 2
  %131 = load ptr, ptr %130, align 8, !tbaa !70
  call void @CRYPTO_free(ptr noundef %131, ptr noundef @.str.44, i32 noundef 634)
  %132 = call ptr @radix_get_thread()
  %133 = getelementptr inbounds nuw %struct.radix_thread_st, ptr %132, i32 0, i32 2
  store ptr null, ptr %133, align 8, !tbaa !70
  %134 = call ptr @radix_get_thread()
  %135 = getelementptr inbounds nuw %struct.radix_thread_st, ptr %134, i32 0, i32 3
  store i64 0, ptr %135, align 8, !tbaa !71
  store i32 1, ptr %3, align 4, !tbaa !9
  br label %136

136:                                              ; preds = %128, %127, %110, %91, %86, %63, %45, %32, %19
  %137 = load i32, ptr %3, align 4, !tbaa !9
  call void @llvm.lifetime.end.p0(i64 8, ptr %8) #9
  call void @llvm.lifetime.end.p0(i64 8, ptr %7) #9
  call void @llvm.lifetime.end.p0(i64 8, ptr %6) #9
  call void @llvm.lifetime.end.p0(i64 8, ptr %5) #9
  call void @llvm.lifetime.end.p0(i64 4, ptr %4) #9
  call void @llvm.lifetime.end.p0(i64 4, ptr %3) #9
  ret i32 %137
}