; Function Attrs: nounwind uwtable
define internal range(i32 0, 3) i32 @hf_read_expect(ptr noundef captures(none) %0) #1 {
  %2 = alloca i64, align 8
  call void @llvm.lifetime.start.p0(i64 8, ptr nonnull %2) #12
  store i64 0, ptr %2, align 8, !tbaa !82
  %3 = load ptr, ptr %0, align 8, !tbaa !107
  %4 = getelementptr inbounds nuw i8, ptr %3, i64 112
  %5 = load ptr, ptr %4, align 8, !tbaa !100
  %6 = getelementptr inbounds nuw i8, ptr %3, i64 104
  %7 = load ptr, ptr %6, align 8, !tbaa !95
  %8 = ptrtoint ptr %5 to i64
  %9 = ptrtoint ptr %7 to i64
  %10 = sub i64 %8, %9
  %11 = tail call i32 @test_size_t_ge(ptr noundef nonnull @.str.42, i32 noundef 629, ptr noundef nonnull @.str.55, ptr noundef nonnull @.str.56, i64 noundef %10, i64 noundef 8) #12
  %.not.i = icmp eq i32 %11, 0
  br i1 %.not.i, label %TERP_stk_pop.exit, label %12

12:                                               ; preds = %1
  %13 = load ptr, ptr %6, align 8, !tbaa !95
  %14 = load i64, ptr %13, align 1
  %15 = getelementptr inbounds nuw i8, ptr %13, i64 8
  store ptr %15, ptr %6, align 8, !tbaa !95
  br label %TERP_stk_pop.exit

TERP_stk_pop.exit:                                ; preds = %1, %12
  %.028 = phi i64 [ 0, %1 ], [ %14, %12 ]
  %.0.i = phi i32 [ 0, %1 ], [ 1, %12 ]
  %16 = tail call i32 @test_true(ptr noundef nonnull @.str.44, i32 noundef 609, ptr noundef nonnull @.str.113, i32 noundef %.0.i) #12
  %.not = icmp eq i32 %16, 0
  br i1 %.not, label %99, label %17

17:                                               ; preds = %TERP_stk_pop.exit
  %18 = load ptr, ptr %0, align 8, !tbaa !107
  %19 = getelementptr inbounds nuw i8, ptr %18, i64 112
  %20 = load ptr, ptr %19, align 8, !tbaa !100
  %21 = getelementptr inbounds nuw i8, ptr %18, i64 104
  %22 = load ptr, ptr %21, align 8, !tbaa !95
  %23 = ptrtoint ptr %20 to i64
  %24 = ptrtoint ptr %22 to i64
  %25 = sub i64 %23, %24
  %26 = tail call i32 @test_size_t_ge(ptr noundef nonnull @.str.42, i32 noundef 629, ptr noundef nonnull @.str.55, ptr noundef nonnull @.str.56, i64 noundef %25, i64 noundef 8) #12
  %.not.i17 = icmp eq i32 %26, 0
  br i1 %.not.i17, label %TERP_stk_pop.exit19, label %27

27:                                               ; preds = %17
  %28 = load ptr, ptr %21, align 8, !tbaa !95
  %29 = load i64, ptr %28, align 1
  %30 = inttoptr i64 %29 to ptr
  %31 = getelementptr inbounds nuw i8, ptr %28, i64 8
  store ptr %31, ptr %21, align 8, !tbaa !95
  br label %TERP_stk_pop.exit19

TERP_stk_pop.exit19:                              ; preds = %17, %27
  %.029 = phi ptr [ null, %17 ], [ %30, %27 ]
  %.0.i18 = phi i32 [ 0, %17 ], [ 1, %27 ]
  %32 = tail call i32 @test_true(ptr noundef nonnull @.str.44, i32 noundef 609, ptr noundef nonnull @.str.114, i32 noundef %.0.i18) #12
  %.not8 = icmp eq i32 %32, 0
  br i1 %.not8, label %99, label %33

33:                                               ; preds = %TERP_stk_pop.exit19
  %34 = tail call i32 @test_size_t_lt(ptr noundef nonnull @.str.74, i32 noundef 670, ptr noundef nonnull @.str.93, ptr noundef nonnull @.str.86, i64 noundef 0, i64 noundef 8) #12
  %.not.i20 = icmp eq i32 %34, 0
  br i1 %.not.i20, label %expect_slot_ssl.exit, label %35

35:                                               ; preds = %33
  %36 = tail call ptr @CRYPTO_THREAD_get_local(ptr noundef nonnull @radix_thread) #12
  %37 = getelementptr inbounds nuw i8, ptr %36, i64 104
  %38 = load ptr, ptr %37, align 8, !tbaa !49
  %39 = tail call i32 @test_ptr(ptr noundef nonnull @.str.74, i32 noundef 671, ptr noundef nonnull @.str.94, ptr noundef %38) #12
  %.not3.i = icmp ne i32 %39, 0
  %spec.select.i = zext i1 %.not3.i to i32
  br label %expect_slot_ssl.exit

expect_slot_ssl.exit:                             ; preds = %33, %35
  %.030 = phi ptr [ null, %33 ], [ %38, %35 ]
  %.0.i21 = phi i32 [ 0, %33 ], [ %spec.select.i, %35 ]
  %40 = tail call i32 @test_true(ptr noundef nonnull @.str.44, i32 noundef 610, ptr noundef nonnull @.str.95, i32 noundef %.0.i21) #12
  %.not9 = icmp eq i32 %40, 0
  br i1 %.not9, label %99, label %41

41:                                               ; preds = %expect_slot_ssl.exit
  %.not10 = icmp eq i64 %.028, 0
  br i1 %.not10, label %52, label %42

42:                                               ; preds = %41
  %43 = tail call ptr @CRYPTO_THREAD_get_local(ptr noundef nonnull @radix_thread) #12
  %44 = getelementptr inbounds nuw i8, ptr %43, i64 16
  %45 = load ptr, ptr %44, align 8, !tbaa !53
  %46 = icmp eq ptr %45, null
  br i1 %46, label %47, label %52

47:                                               ; preds = %42
  %48 = tail call noalias ptr @CRYPTO_malloc(i64 noundef %.028, ptr noundef nonnull @.str.44, i32 noundef 613) #12
  %49 = tail call ptr @CRYPTO_THREAD_get_local(ptr noundef nonnull @radix_thread) #12
  %50 = getelementptr inbounds nuw i8, ptr %49, i64 16
  store ptr %48, ptr %50, align 8, !tbaa !53
  %51 = tail call i32 @test_ptr(ptr noundef nonnull @.str.44, i32 noundef 613, ptr noundef nonnull @.str.124, ptr noundef %48) #12
  %.not11 = icmp eq i32 %51, 0
  br i1 %.not11, label %99, label %52

52:                                               ; preds = %47, %42, %41
  %53 = tail call ptr @CRYPTO_THREAD_get_local(ptr noundef nonnull @radix_thread) #12
  %54 = getelementptr inbounds nuw i8, ptr %53, i64 16
  %55 = load ptr, ptr %54, align 8, !tbaa !53
  %56 = tail call ptr @CRYPTO_THREAD_get_local(ptr noundef nonnull @radix_thread) #12
  %57 = getelementptr inbounds nuw i8, ptr %56, i64 24
  %58 = load i64, ptr %57, align 8, !tbaa !111
  %59 = getelementptr inbounds nuw i8, ptr %55, i64 %58
  %60 = tail call ptr @CRYPTO_THREAD_get_local(ptr noundef nonnull @radix_thread) #12
  %61 = getelementptr inbounds nuw i8, ptr %60, i64 24
  %62 = load i64, ptr %61, align 8, !tbaa !111
  %63 = sub i64 %.028, %62
  %64 = call i32 @SSL_read_ex(ptr noundef %.030, ptr noundef %59, i64 noundef %63, ptr noundef nonnull %2) #12
  %65 = call fastcc i32 @check_consistent_want(ptr noundef %.030, i32 noundef %64)
  %66 = icmp ne i32 %65, 0
  %67 = zext i1 %66 to i32
  %68 = call i32 @test_true(ptr noundef nonnull @.str.44, i32 noundef 619, ptr noundef nonnull @.str.125, i32 noundef %67) #12
  %.not12 = icmp eq i32 %68, 0
  br i1 %.not12, label %99, label %69

69:                                               ; preds = %52
  %.not13 = icmp eq i32 %64, 0
  br i1 %.not13, label %70, label %72

70:                                               ; preds = %69
  %71 = getelementptr inbounds nuw i8, ptr %0, i64 8
  store i32 1, ptr %71, align 8, !tbaa !110
  br label %99

72:                                               ; preds = %69
  %73 = load i64, ptr %2, align 8, !tbaa !82
  %74 = call ptr @CRYPTO_THREAD_get_local(ptr noundef nonnull @radix_thread) #12
  %75 = getelementptr inbounds nuw i8, ptr %74, i64 24
  %76 = load i64, ptr %75, align 8, !tbaa !111
  %77 = add i64 %76, %73
  %.not14 = icmp eq i64 %77, %.028
  br i1 %.not14, label %85, label %78

78:                                               ; preds = %72
  %79 = load i64, ptr %2, align 8, !tbaa !82
  %80 = call ptr @CRYPTO_THREAD_get_local(ptr noundef nonnull @radix_thread) #12
  %81 = getelementptr inbounds nuw i8, ptr %80, i64 24
  %82 = load i64, ptr %81, align 8, !tbaa !111
  %83 = add i64 %82, %79
  store i64 %83, ptr %81, align 8, !tbaa !111
  %84 = getelementptr inbounds nuw i8, ptr %0, i64 8
  store i32 1, ptr %84, align 8, !tbaa !110
  br label %99

85:                                               ; preds = %72
  br i1 %.not10, label %91, label %86

86:                                               ; preds = %85
  %87 = call ptr @CRYPTO_THREAD_get_local(ptr noundef nonnull @radix_thread) #12
  %88 = getelementptr inbounds nuw i8, ptr %87, i64 16
  %89 = load ptr, ptr %88, align 8, !tbaa !53
  %90 = call i32 @test_mem_eq(ptr noundef nonnull @.str.44, i32 noundef 631, ptr noundef nonnull @.str.126, ptr noundef nonnull @.str.127, ptr noundef %89, i64 noundef %.028, ptr noundef %.029, i64 noundef %.028) #12
  %.not16 = icmp eq i32 %90, 0
  br i1 %.not16, label %99, label %91

91:                                               ; preds = %86, %85
  %92 = call ptr @CRYPTO_THREAD_get_local(ptr noundef nonnull @radix_thread) #12
  %93 = getelementptr inbounds nuw i8, ptr %92, i64 16
  %94 = load ptr, ptr %93, align 8, !tbaa !53
  call void @CRYPTO_free(ptr noundef %94, ptr noundef nonnull @.str.44, i32 noundef 634) #12
  %95 = call ptr @CRYPTO_THREAD_get_local(ptr noundef nonnull @radix_thread) #12
  %96 = getelementptr inbounds nuw i8, ptr %95, i64 16
  store ptr null, ptr %96, align 8, !tbaa !53
  %97 = call ptr @CRYPTO_THREAD_get_local(ptr noundef nonnull @radix_thread) #12
  %98 = getelementptr inbounds nuw i8, ptr %97, i64 24
  store i64 0, ptr %98, align 8, !tbaa !111
  br label %99

99:                                               ; preds = %86, %52, %47, %expect_slot_ssl.exit, %TERP_stk_pop.exit19, %TERP_stk_pop.exit, %91, %78, %70
  %.0 = phi i32 [ 2, %78 ], [ 1, %91 ], [ 0, %86 ], [ 2, %70 ], [ 0, %52 ], [ 0, %47 ], [ 0, %expect_slot_ssl.exit ], [ 0, %TERP_stk_pop.exit19 ], [ 0, %TERP_stk_pop.exit ]
  call void @llvm.lifetime.end.p0(i64 8, ptr nonnull %2) #12
  ret i32 %.0
}